; Function Attrs: mustprogress nofree norecurse nosync nounwind memory(read, argmem: readwrite, inaccessiblemem: none) uwtable
define hidden noundef zeroext i1 @_ZNK5ceres14SubsetManifold5MinusEPKdS2_Pd(ptr nocapture noundef nonnull readonly align 8 dereferenceable(56) %0, ptr nocapture noundef readonly %1, ptr nocapture noundef readonly %2, ptr nocapture noundef writeonly %3) unnamed_addr #8 align 2 personality ptr @__gxx_personality_v0 {
  %5 = getelementptr inbounds i8, ptr %0, i64 8
  %6 = load i32, ptr %5, align 8
  %7 = icmp eq i32 %6, 0
  br i1 %7, label %.loopexit, label %8

8:                                                ; preds = %4
  %9 = getelementptr inbounds i8, ptr %0, i64 16
  %10 = getelementptr inbounds i8, ptr %0, i64 32
  %11 = load ptr, ptr %10, align 8
  %12 = getelementptr inbounds i8, ptr %0, i64 40
  %13 = load i32, ptr %12, align 8
  %14 = load ptr, ptr %9, align 8
  %15 = ptrtoint ptr %11 to i64
  %16 = ptrtoint ptr %14 to i64
  %17 = sub i64 %15, %16
  %.tr.i = trunc i64 %17 to i32
  %18 = shl i32 %.tr.i, 3
  %19 = add i32 %18, %13
  %20 = icmp sgt i32 %19, 0
  br i1 %20, label %.lr.ph.preheader, label %.loopexit

.lr.ph.preheader:                                 ; preds = %8
  %21 = zext nneg i32 %19 to i64
  br label %.lr.ph

.lr.ph:                                           ; preds = %.lr.ph.preheader, %38
  %indvars.iv = phi i64 [ 0, %.lr.ph.preheader ], [ %indvars.iv.next, %38 ]
  %.014 = phi i32 [ 0, %.lr.ph.preheader ], [ %.1, %38 ]
  %22 = load ptr, ptr %9, align 8
  %23 = lshr i64 %indvars.iv, 6
  %.zext = and i64 %23, 67108863
  %24 = getelementptr inbounds i64, ptr %22, i64 %.zext
  %25 = and i64 %indvars.iv, 63
  %26 = shl nuw i64 1, %25
  %27 = load i64, ptr %24, align 8
  %28 = and i64 %27, %26
  %.not = icmp eq i64 %28, 0
  br i1 %.not, label %29, label %38

29:                                               ; preds = %.lr.ph
  %30 = getelementptr inbounds double, ptr %1, i64 %indvars.iv
  %31 = load double, ptr %30, align 8
  %32 = getelementptr inbounds double, ptr %2, i64 %indvars.iv
  %33 = load double, ptr %32, align 8
  %34 = fsub double %31, %33
  %35 = add nsw i32 %.014, 1
  %36 = sext i32 %.014 to i64
  %37 = getelementptr inbounds double, ptr %3, i64 %36
  store double %34, ptr %37, align 8
  br label %38

38:                                               ; preds = %.lr.ph, %29
  %.1 = phi i32 [ %.014, %.lr.ph ], [ %35, %29 ]
  %indvars.iv.next = add nuw nsw i64 %indvars.iv, 1
  %39 = icmp ult i64 %indvars.iv.next, %21
  br i1 %39, label %.lr.ph, label %.loopexit, !llvm.loop !16

.loopexit:                                        ; preds = %38, %8, %4
  ret i1 true
}